; Function Attrs: mustprogress uwtable
define dso_local void @_ZNK15btConvex2dShape7getAabbERK11btTransformR9btVector3S4_(ptr nocapture noundef nonnull readonly align 8 dereferenceable(40) %this, ptr noundef nonnull align 4 dereferenceable(64) %t, ptr noundef nonnull align 4 dereferenceable(16) %aabbMin, ptr noundef nonnull align 4 dereferenceable(16) %aabbMax) unnamed_addr #0 align 2 {
entry:
  %m_childConvexShape = getelementptr inbounds i8, ptr %this, i64 32
  %0 = load ptr, ptr %m_childConvexShape, align 8
  %vtable = load ptr, ptr %0, align 8
  %vfn = getelementptr inbounds i8, ptr %vtable, i64 16
  %1 = load ptr, ptr %vfn, align 8
  tail call void %1(ptr noundef nonnull align 8 dereferenceable(32) %0, ptr noundef nonnull align 4 dereferenceable(64) %t, ptr noundef nonnull align 4 dereferenceable(16) %aabbMin, ptr noundef nonnull align 4 dereferenceable(16) %aabbMax)
  ret void
}